(lp1
Vafghani
p2
aVafrican
p3
aVandalusian
p4
aVarabian
p5
aVargentine
p6
aVarmenian
p7
aVasianfusion
p8
aVasturian
p9
aVaustralian
p10
aVaustrian
p11
aVbaguettes
p12
aVbangladeshi
p13
aVbasque
p14
aVbavarian
p15
aVbbq
p16
aVbeergarden
p17
aVbeerhall
p18
aVbeisl
p19
aVbelgian
p20
aVbistros
p21
aVblacksea
p22
aVbrasseries
p23
aVbrazilian
p24
aVbreakfast_brunch
p25
aVbritish
p26
aVbuffets
p27
aVbulgarian
p28
aVburgers
p29
aVburmese
p30
aVcafes
p31
aVcafeteria
p32
aVcajun
p33
aVcambodian
p34
aVcanteen
p35
aVcaribbean
p36
aVcatalan
p37
aVcheesesteaks
p38
aVchicken_wings
p39
aVchickenshop
p40
aVchilean
p41
aVchinese
p42
aVcomfortfood
p43
aVcorsican
p44
aVcreperies
p45
aVcuban
p46
aVcurrysausage
p47
aVcypriot
p48
aVczech
p49
aVczechslovakian
p50
aVdanish
p51
aVdelis
p52
aVdiners
p53
aVdumplings
p54
aVeastern_european
p55
aVethiopian
p56
aVfilipino
p57
aVfischbroetchen
p58
aVfishnchips
p59
aVflatbread
p60
aVfondue
p61
aVfood_court
p62
aVfoodstands
p63
aVfrench
p64
aVgalician
p65
aVgastropubs
p66
aVgeorgian
p67
aVgerman
p68
aVgiblets
p69
aVgluten_free
p70
aVgreek
p71
aVhalal
p72
aVhawaiian
p73
aVheuriger
p74
aVhimalayan
p75
aVhkcafe
p76
aVhotdog
p77
aVhotdogs
p78
aVhotpot
p79
aVhungarian
p80
aViberian
p81
aVindonesian
p82
aVindpak
p83
aVinternational
p84
aVirish
p85
aVisland_pub
p86
aVisraeli
p87
aVitalian
p88
aVjapanese
p89
aVjewish
p90
aVkebab
p91
aVkopitiam
p92
aVkorean
p93
aVkosher
p94
aVkurdish
p95
aVlaos
p96
aVlaotian
p97
aVlatin
p98
aVlyonnais
p99
aVmalaysian
p100
aVmeatballs
p101
aVmediterranean
p102
aVmexican
p103
aVmideastern
p104
aVmilkbars
p105
aVmodern_australian
p106
aVmodern_european
p107
aVmongolian
p108
aVmoroccan
p109
aVnewamerican
p110
aVnewcanadian
p111
aVnewzealand
p112
aVnightfood
p113
aVnorcinerie
p114
aVnorwegian
p115
aVopensandwiches
p116
aVoriental
p117
aVpakistani
p118
aVparma
p119
aVpersian
p120
aVperuvian
p121
aVpfcomercial
p122
aVpita
p123
aVpizza
p124
aVpolish
p125
aVportuguese
p126
aVpotatoes
p127
aVpoutineries
p128
aVpubfood
p129
aVraw_food
p130
aVriceshop
p131
aVromanian
p132
aVrotisserie_chicken
p133
aVrumanian
p134
aVrussian
p135
aVsalad
p136
aVsandwiches
p137
aVscandinavian
p138
aVscottish
p139
aVseafood
p140
aVserbocroatian
p141
aVsignature_cuisine
p142
aVsingaporean
p143
aVslovakian
p144
aVsoulfood
p145
aVsoup
p146
aVsouthern
p147
aVspanish
p148
aVsrilankan
p149
aVsteak
p150
aVsud_ouest
p151
aVsupperclubs
p152
aVsushi
p153
aVswabian
p154
aVswedish
p155
aVswissfood
p156
aVsyrian
p157
aVtabernas
p158
aVtaiwanese
p159
aVtapas
p160
aVtapasmallplates
p161
aVtex-mex
p162
aVthai
p163
aVtradamerican
p164
aVtraditional_swedish
p165
aVtrattorie
p166
aVturkish
p167
aVukrainian
p168
aVuzbek
p169
aVvegan
p170
aVvegetarian
p171
aVvenison
p172
aVvietnamese
p173
aVwok
p174
aVwraps
p175
aVyugoslav
p176
a.